; Function Attrs: mustprogress uwtable
define void @_ZN4LIEF5MachO12BuildVersionC2ERKNS0_7details21build_version_commandE(ptr noundef nonnull align 8 dereferenceable(112) %0, ptr nocapture noundef nonnull readonly align 4 dereferenceable(24) %1) unnamed_addr #0 align 2 {
  %3 = load i32, ptr %1, align 4
  %4 = zext i32 %3 to i64
  %5 = getelementptr inbounds i8, ptr %1, i64 4
  %6 = load i32, ptr %5, align 4
  tail call void @_ZN4LIEF5MachO11LoadCommandC2ENS0_18LOAD_COMMAND_TYPESEj(ptr noundef nonnull align 8 dereferenceable(56) %0, i64 noundef %4, i32 noundef %6)
  store ptr getelementptr inbounds ({ [9 x ptr] }, ptr @_ZTVN4LIEF5MachO12BuildVersionE, i64 0, i32 0, i64 2), ptr %0, align 8
  %7 = getelementptr inbounds i8, ptr %0, i64 56
  %8 = getelementptr inbounds i8, ptr %1, i64 8
  %9 = load i32, ptr %8, align 4
  store i32 %9, ptr %7, align 8
  %10 = getelementptr inbounds i8, ptr %0, i64 60
  %11 = getelementptr inbounds i8, ptr %1, i64 12
  %12 = load i32, ptr %11, align 4
  %13 = lshr i32 %12, 16
  store i32 %13, ptr %10, align 4
  %14 = getelementptr inbounds i8, ptr %0, i64 64
  %15 = load i32, ptr %11, align 4
  %16 = lshr i32 %15, 8
  %17 = and i32 %16, 255
  store i32 %17, ptr %14, align 8
  %18 = getelementptr inbounds i8, ptr %0, i64 68
  %19 = load i32, ptr %11, align 4
  %20 = and i32 %19, 255
  store i32 %20, ptr %18, align 4
  %21 = getelementptr inbounds i8, ptr %0, i64 72
  %22 = getelementptr inbounds i8, ptr %1, i64 16
  %23 = load i32, ptr %22, align 4
  %24 = lshr i32 %23, 16
  store i32 %24, ptr %21, align 8
  %25 = getelementptr inbounds i8, ptr %0, i64 76
  %26 = load i32, ptr %22, align 4
  %27 = lshr i32 %26, 8
  %28 = and i32 %27, 255
  store i32 %28, ptr %25, align 4
  %29 = getelementptr inbounds i8, ptr %0, i64 80
  %30 = load i32, ptr %22, align 4
  %31 = and i32 %30, 255
  store i32 %31, ptr %29, align 8
  %32 = getelementptr inbounds i8, ptr %0, i64 88
  tail call void @llvm.memset.p0.i64(ptr noundef nonnull align 8 dereferenceable(24) %32, i8 0, i64 24, i1 false)
  ret void
}